target datalayout = "e-m:e-p270:32:32-p271:32:32-p272:64:64-i64:64-i128:128-f80:128-n8:16:32:64-S128"
target triple = "x86_64-pc-linux-gnu"

%"struct.Luau::BytecodeBuilder::StringRef" = type { ptr, i64 }

; Function Attrs: mustprogress nounwind uwtable
define dso_local noundef i32 @_ZN4Luau15BytecodeBuilder13getStringHashENS0_9StringRefE(ptr %0, i64 %1) #0 align 2 {
  %3 = alloca %"struct.Luau::BytecodeBuilder::StringRef", align 8
  %4 = alloca ptr, align 8
  %5 = alloca i64, align 8
  %6 = alloca i32, align 4
  %7 = alloca i64, align 8
  %8 = getelementptr inbounds nuw { ptr, i64 }, ptr %3, i32 0, i32 0
  store ptr %0, ptr %8, align 8
  %9 = getelementptr inbounds nuw { ptr, i64 }, ptr %3, i32 0, i32 1
  store i64 %1, ptr %9, align 8
  call void @llvm.lifetime.start.p0(i64 8, ptr %4) #19
  %10 = getelementptr inbounds nuw %"struct.Luau::BytecodeBuilder::StringRef", ptr %3, i32 0, i32 0
  %11 = load ptr, ptr %10, align 8, !tbaa !9
  store ptr %11, ptr %4, align 8, !tbaa !233
  call void @llvm.lifetime.start.p0(i64 8, ptr %5) #19
  %12 = getelementptr inbounds nuw %"struct.Luau::BytecodeBuilder::StringRef", ptr %3, i32 0, i32 1
  %13 = load i64, ptr %12, align 8, !tbaa !13
  store i64 %13, ptr %5, align 8, !tbaa !32
  call void @llvm.lifetime.start.p0(i64 4, ptr %6) #19
  %14 = load i64, ptr %5, align 8, !tbaa !32
  %15 = trunc i64 %14 to i32
  store i32 %15, ptr %6, align 4, !tbaa !28
  call void @llvm.lifetime.start.p0(i64 8, ptr %7) #19
  %16 = load i64, ptr %5, align 8, !tbaa !32
  store i64 %16, ptr %7, align 8, !tbaa !32
  br label %17

17:                                               ; preds = %36, %2
  %18 = load i64, ptr %7, align 8, !tbaa !32
  %19 = icmp ugt i64 %18, 0
  br i1 %19, label %21, label %20

20:                                               ; preds = %17
  call void @llvm.lifetime.end.p0(i64 8, ptr %7) #19
  br label %39

21:                                               ; preds = %17
  %22 = load i32, ptr %6, align 4, !tbaa !28
  %23 = shl i32 %22, 5
  %24 = load i32, ptr %6, align 4, !tbaa !28
  %25 = lshr i32 %24, 2
  %26 = add i32 %23, %25
  %27 = load ptr, ptr %4, align 8, !tbaa !233
  %28 = load i64, ptr %7, align 8, !tbaa !32
  %29 = sub i64 %28, 1
  %30 = getelementptr inbounds nuw i8, ptr %27, i64 %29
  %31 = load i8, ptr %30, align 1, !tbaa !220
  %32 = zext i8 %31 to i32
  %33 = add i32 %26, %32
  %34 = load i32, ptr %6, align 4, !tbaa !28
  %35 = xor i32 %34, %33
  store i32 %35, ptr %6, align 4, !tbaa !28
  br label %36

36:                                               ; preds = %21
  %37 = load i64, ptr %7, align 8, !tbaa !32
  %38 = add i64 %37, -1
  store i64 %38, ptr %7, align 8, !tbaa !32
  br label %17, !llvm.loop !366

39:                                               ; preds = %20
  %40 = load i32, ptr %6, align 4, !tbaa !28
  call void @llvm.lifetime.end.p0(i64 4, ptr %6) #19
  call void @llvm.lifetime.end.p0(i64 8, ptr %5) #19
  call void @llvm.lifetime.end.p0(i64 8, ptr %4) #19
  ret i32 %40
}